target datalayout = "e-m:e-p270:32:32-p271:32:32-p272:64:64-i64:64-i128:128-f80:128-n8:16:32:64-S128"
target triple = "x86_64-pc-linux-gnu"

%struct.obj_itr = type { ptr, ptr }

; Function Attrs: nounwind sspstrong uwtable
define internal void @each_object_with_flags(ptr noundef %0, ptr noundef %1) #0 {
  %3 = alloca ptr, align 8
  %4 = alloca ptr, align 8
  %5 = alloca %struct.obj_itr, align 8
  store ptr %0, ptr %3, align 8, !tbaa !46
  store ptr %1, ptr %4, align 8, !tbaa !46
  call void @llvm.lifetime.start.p0(i64 16, ptr %5) #15
  %6 = load ptr, ptr %3, align 8, !tbaa !46
  %7 = getelementptr inbounds nuw %struct.obj_itr, ptr %5, i32 0, i32 0
  store ptr %6, ptr %7, align 8, !tbaa !47
  %8 = load ptr, ptr %4, align 8, !tbaa !46
  %9 = getelementptr inbounds nuw %struct.obj_itr, ptr %5, i32 0, i32 1
  store ptr %8, ptr %9, align 8, !tbaa !49
  call void @rb_objspace_each_objects(ptr noundef @heap_iter, ptr noundef %5)
  call void @llvm.lifetime.end.p0(i64 16, ptr %5) #15
  ret void
}

; Function Attrs: nounwind sspstrong uwtable
define internal i64 @count_tdata_objects(i32 noundef %0, ptr noundef %1, i64 noundef %2) #0 {
  %4 = alloca i32, align 4
  %5 = alloca ptr, align 8
  %6 = alloca i64, align 8
  %7 = alloca i64, align 8
  store i32 %0, ptr %4, align 4, !tbaa !10
  store ptr %1, ptr %5, align 8, !tbaa !12
  store i64 %2, ptr %6, align 8, !tbaa !6
  call void @llvm.lifetime.start.p0(i64 8, ptr %7) #15
  %8 = load i32, ptr %4, align 4, !tbaa !10
  %9 = load ptr, ptr %5, align 8, !tbaa !12
  %10 = call i64 @setup_hash(i32 noundef %8, ptr noundef %9)
  store i64 %10, ptr %7, align 8, !tbaa !6
  %11 = load i64, ptr %7, align 8, !tbaa !6
  %12 = inttoptr i64 %11 to ptr
  call void @each_object_with_flags(ptr noundef @cto_i, ptr noundef %12)
  %13 = load i64, ptr %7, align 8, !tbaa !6
  call void @llvm.lifetime.end.p0(i64 8, ptr %7) #15
  ret i64 %13
}