; Function Attrs: nounwind sspstrong uwtable
define internal i64 @count_tdata_objects(i32 noundef %0, ptr noundef readonly captures(none) %1, i64 %2) #0 {
  %4 = alloca %struct.obj_itr, align 8
  %5 = tail call fastcc i64 @setup_hash(i32 noundef %0, ptr noundef %1)
  %6 = inttoptr i64 %5 to ptr
  call void @llvm.lifetime.start.p0(i64 16, ptr nonnull %4) #7
  store ptr @cto_i, ptr %4, align 8, !tbaa !10
  %7 = getelementptr inbounds nuw i8, ptr %4, i64 8
  store ptr %6, ptr %7, align 8, !tbaa !13
  call void @rb_objspace_each_objects(ptr noundef nonnull @heap_iter, ptr noundef nonnull %4) #7
  call void @llvm.lifetime.end.p0(i64 16, ptr nonnull %4) #7
  ret i64 %5
}